target datalayout = "e-m:e-p270:32:32-p271:32:32-p272:64:64-i64:64-i128:128-f80:128-n8:16:32:64-S128"
target triple = "x86_64-pc-linux-gnu"

@.str = private unnamed_addr constant [3 x i8] c"wb\00", align 1

; Function Attrs: nounwind uwtable
define ptr @stbiw__fopen(ptr noundef %0, ptr noundef %1) #0 {
  %3 = alloca ptr, align 8
  %4 = alloca ptr, align 8
  %5 = alloca ptr, align 8
  store ptr %0, ptr %3, align 8, !tbaa !12
  store ptr %1, ptr %4, align 8, !tbaa !12
  call void @llvm.lifetime.start.p0(i64 8, ptr %5) #11
  %6 = load ptr, ptr %3, align 8, !tbaa !12
  %7 = load ptr, ptr %4, align 8, !tbaa !12
  %8 = call noalias ptr @fopen(ptr noundef %6, ptr noundef %7)
  store ptr %8, ptr %5, align 8, !tbaa !14
  %9 = load ptr, ptr %5, align 8, !tbaa !14
  call void @llvm.lifetime.end.p0(i64 8, ptr %5) #11
  ret ptr %9
}

; Function Attrs: nounwind uwtable
define i32 @stbi_write_png(ptr noundef %0, i32 noundef %1, i32 noundef %2, i32 noundef %3, ptr noundef %4, i32 noundef %5) #0 {
  %7 = alloca i32, align 4
  %8 = alloca ptr, align 8
  %9 = alloca i32, align 4
  %10 = alloca i32, align 4
  %11 = alloca i32, align 4
  %12 = alloca ptr, align 8
  %13 = alloca i32, align 4
  %14 = alloca ptr, align 8
  %15 = alloca i32, align 4
  %16 = alloca ptr, align 8
  %17 = alloca i32, align 4
  store ptr %0, ptr %8, align 8, !tbaa !12
  store i32 %1, ptr %9, align 4, !tbaa !3
  store i32 %2, ptr %10, align 4, !tbaa !3
  store i32 %3, ptr %11, align 4, !tbaa !3
  store ptr %4, ptr %12, align 8, !tbaa !7
  store i32 %5, ptr %13, align 4, !tbaa !3
  call void @llvm.lifetime.start.p0(i64 8, ptr %14) #11
  call void @llvm.lifetime.start.p0(i64 4, ptr %15) #11
  call void @llvm.lifetime.start.p0(i64 8, ptr %16) #11
  %18 = load ptr, ptr %12, align 8, !tbaa !7
  %19 = load i32, ptr %13, align 4, !tbaa !3
  %20 = load i32, ptr %9, align 4, !tbaa !3
  %21 = load i32, ptr %10, align 4, !tbaa !3
  %22 = load i32, ptr %11, align 4, !tbaa !3
  %23 = call ptr @stbi_write_png_to_mem(ptr noundef %18, i32 noundef %19, i32 noundef %20, i32 noundef %21, i32 noundef %22, ptr noundef %15)
  store ptr %23, ptr %16, align 8, !tbaa !12
  %24 = load ptr, ptr %16, align 8, !tbaa !12
  %25 = icmp eq ptr %24, null
  br i1 %25, label %26, label %27

26:                                               ; preds = %6
  store i32 0, ptr %7, align 4
  store i32 1, ptr %17, align 4
  br label %43

27:                                               ; preds = %6
  %28 = load ptr, ptr %8, align 8, !tbaa !12
  %29 = call ptr @stbiw__fopen(ptr noundef %28, ptr noundef @.str)
  store ptr %29, ptr %14, align 8, !tbaa !14
  %30 = load ptr, ptr %14, align 8, !tbaa !14
  %31 = icmp ne ptr %30, null
  br i1 %31, label %34, label %32

32:                                               ; preds = %27
  %33 = load ptr, ptr %16, align 8, !tbaa !12
  call void @free(ptr noundef %33) #11
  store i32 0, ptr %7, align 4
  store i32 1, ptr %17, align 4
  br label %43

34:                                               ; preds = %27
  %35 = load ptr, ptr %16, align 8, !tbaa !12
  %36 = load i32, ptr %15, align 4, !tbaa !3
  %37 = sext i32 %36 to i64
  %38 = load ptr, ptr %14, align 8, !tbaa !14
  %39 = call i64 @fwrite(ptr noundef %35, i64 noundef 1, i64 noundef %37, ptr noundef %38)
  %40 = load ptr, ptr %14, align 8, !tbaa !14
  %41 = call i32 @fclose(ptr noundef %40)
  %42 = load ptr, ptr %16, align 8, !tbaa !12
  call void @free(ptr noundef %42) #11
  store i32 1, ptr %7, align 4
  store i32 1, ptr %17, align 4
  br label %43

43:                                               ; preds = %34, %32, %26
  call void @llvm.lifetime.end.p0(i64 8, ptr %16) #11
  call void @llvm.lifetime.end.p0(i64 4, ptr %15) #11
  call void @llvm.lifetime.end.p0(i64 8, ptr %14) #11
  %44 = load i32, ptr %7, align 4
  ret i32 %44
}