; Function Attrs: nounwind uwtable
define range(i32 0, 2) i32 @stbi_write_png(ptr noundef readonly captures(none) %0, i32 noundef %1, i32 noundef %2, i32 noundef %3, ptr noundef readonly captures(none) %4, i32 noundef %5) local_unnamed_addr #5 {
  %7 = alloca i32, align 4
  call void @llvm.lifetime.start.p0(i64 4, ptr nonnull %7) #26
  %8 = call ptr @stbi_write_png_to_mem(ptr noundef %4, i32 noundef %5, i32 noundef %1, i32 noundef %2, i32 noundef %3, ptr noundef nonnull %7)
  %9 = icmp eq ptr %8, null
  br i1 %9, label %17, label %10

10:                                               ; preds = %6
  %11 = tail call noalias noundef ptr @fopen(ptr noundef readonly %0, ptr noundef nonnull @.str)
  %.not = icmp eq ptr %11, null
  br i1 %.not, label %.sink.split, label %12

12:                                               ; preds = %10
  %13 = load i32, ptr %7, align 4, !tbaa !3
  %14 = sext i32 %13 to i64
  %15 = tail call i64 @fwrite(ptr noundef nonnull %8, i64 noundef 1, i64 noundef %14, ptr noundef nonnull %11)
  %16 = tail call i32 @fclose(ptr noundef nonnull %11)
  br label %.sink.split

.sink.split:                                      ; preds = %10, %12
  %.0.ph = phi i32 [ 1, %12 ], [ 0, %10 ]
  tail call void @free(ptr noundef nonnull %8) #26
  br label %17

17:                                               ; preds = %.sink.split, %6
  %.0 = phi i32 [ 0, %6 ], [ %.0.ph, %.sink.split ]
  call void @llvm.lifetime.end.p0(i64 4, ptr nonnull %7) #26
  ret i32 %.0
}